; Function Attrs: nounwind uwtable
define nonnull ptr @l_Lake_recFetchAcyclic___rarg___lambda__3___boxed(ptr noundef %0, ptr noundef %1, ptr noundef %2) #0 {
  %4 = tail call ptr @lean_apply_2(ptr noundef %0, ptr noundef %2, ptr noundef %1) #3
  %5 = ptrtoint ptr %4 to i64
  %6 = and i64 %5, 1
  %.not.i = icmp eq i64 %6, 0
  br i1 %.not.i, label %7, label %l_Lake_recFetchAcyclic___rarg___lambda__3.exit

7:                                                ; preds = %3
  %8 = load i32, ptr %4, align 4, !tbaa !4
  %9 = icmp sgt i32 %8, 1
  br i1 %9, label %10, label %12, !prof !9

10:                                               ; preds = %7
  %11 = add nsw i32 %8, -1
  store i32 %11, ptr %4, align 4, !tbaa !4
  br label %l_Lake_recFetchAcyclic___rarg___lambda__3.exit

12:                                               ; preds = %7
  %.not.i.i = icmp eq i32 %8, 0
  br i1 %.not.i.i, label %l_Lake_recFetchAcyclic___rarg___lambda__3.exit, label %13

13:                                               ; preds = %12
  tail call void @lean_dec_ref_cold(ptr noundef nonnull %4) #3
  br label %l_Lake_recFetchAcyclic___rarg___lambda__3.exit

l_Lake_recFetchAcyclic___rarg___lambda__3.exit:   ; preds = %3, %10, %12, %13
  %14 = and i64 %5, 510
  %15 = icmp eq i64 %14, 0
  %16 = select i1 %15, i64 3, i64 1
  %17 = inttoptr i64 %16 to ptr
  ret ptr %17
}